target datalayout = "e-m:e-p270:32:32-p271:32:32-p272:64:64-i64:64-i128:128-f80:128-n8:16:32:64-S128"
target triple = "x86_64-pc-linux-gnu"

%struct._lv_matrix_t = type { [3 x [3 x float]] }

; Function Attrs: nounwind uwtable
define void @lv_matrix_multiply(ptr noundef %0, ptr noundef %1) #0 {
  %3 = alloca ptr, align 8
  %4 = alloca ptr, align 8
  %5 = alloca %struct._lv_matrix_t, align 4
  %6 = alloca i32, align 4
  %7 = alloca i32, align 4
  %8 = alloca i32, align 4
  store ptr %0, ptr %3, align 8, !tbaa !3
  store ptr %1, ptr %4, align 8, !tbaa !3
  call void @llvm.lifetime.start.p0(i64 36, ptr %5) #7
  call void @llvm.lifetime.start.p0(i64 4, ptr %6) #7
  store i32 0, ptr %6, align 4, !tbaa !9
  br label %9

9:                                                ; preds = %75, %2
  %10 = load i32, ptr %6, align 4, !tbaa !9
  %11 = icmp slt i32 %10, 3
  br i1 %11, label %13, label %12

12:                                               ; preds = %9
  store i32 2, ptr %7, align 4
  call void @llvm.lifetime.end.p0(i64 4, ptr %6) #7
  br label %78

13:                                               ; preds = %9
  call void @llvm.lifetime.start.p0(i64 4, ptr %8) #7
  store i32 0, ptr %8, align 4, !tbaa !9
  br label %14

14:                                               ; preds = %71, %13
  %15 = load i32, ptr %8, align 4, !tbaa !9
  %16 = icmp slt i32 %15, 3
  br i1 %16, label %18, label %17

17:                                               ; preds = %14
  store i32 5, ptr %7, align 4
  call void @llvm.lifetime.end.p0(i64 4, ptr %8) #7
  br label %74

18:                                               ; preds = %14
  %19 = load ptr, ptr %3, align 8, !tbaa !3
  %20 = getelementptr inbounds nuw %struct._lv_matrix_t, ptr %19, i32 0, i32 0
  %21 = load i32, ptr %6, align 4, !tbaa !9
  %22 = sext i32 %21 to i64
  %23 = getelementptr inbounds [3 x [3 x float]], ptr %20, i64 0, i64 %22
  %24 = getelementptr inbounds [3 x float], ptr %23, i64 0, i64 0
  %25 = load float, ptr %24, align 4, !tbaa !7
  %26 = load ptr, ptr %4, align 8, !tbaa !3
  %27 = getelementptr inbounds nuw %struct._lv_matrix_t, ptr %26, i32 0, i32 0
  %28 = getelementptr inbounds [3 x [3 x float]], ptr %27, i64 0, i64 0
  %29 = load i32, ptr %8, align 4, !tbaa !9
  %30 = sext i32 %29 to i64
  %31 = getelementptr inbounds [3 x float], ptr %28, i64 0, i64 %30
  %32 = load float, ptr %31, align 4, !tbaa !7
  %33 = load ptr, ptr %3, align 8, !tbaa !3
  %34 = getelementptr inbounds nuw %struct._lv_matrix_t, ptr %33, i32 0, i32 0
  %35 = load i32, ptr %6, align 4, !tbaa !9
  %36 = sext i32 %35 to i64
  %37 = getelementptr inbounds [3 x [3 x float]], ptr %34, i64 0, i64 %36
  %38 = getelementptr inbounds [3 x float], ptr %37, i64 0, i64 1
  %39 = load float, ptr %38, align 4, !tbaa !7
  %40 = load ptr, ptr %4, align 8, !tbaa !3
  %41 = getelementptr inbounds nuw %struct._lv_matrix_t, ptr %40, i32 0, i32 0
  %42 = getelementptr inbounds [3 x [3 x float]], ptr %41, i64 0, i64 1
  %43 = load i32, ptr %8, align 4, !tbaa !9
  %44 = sext i32 %43 to i64
  %45 = getelementptr inbounds [3 x float], ptr %42, i64 0, i64 %44
  %46 = load float, ptr %45, align 4, !tbaa !7
  %47 = fmul float %39, %46
  %48 = call float @llvm.fmuladd.f32(float %25, float %32, float %47)
  %49 = load ptr, ptr %3, align 8, !tbaa !3
  %50 = getelementptr inbounds nuw %struct._lv_matrix_t, ptr %49, i32 0, i32 0
  %51 = load i32, ptr %6, align 4, !tbaa !9
  %52 = sext i32 %51 to i64
  %53 = getelementptr inbounds [3 x [3 x float]], ptr %50, i64 0, i64 %52
  %54 = getelementptr inbounds [3 x float], ptr %53, i64 0, i64 2
  %55 = load float, ptr %54, align 4, !tbaa !7
  %56 = load ptr, ptr %4, align 8, !tbaa !3
  %57 = getelementptr inbounds nuw %struct._lv_matrix_t, ptr %56, i32 0, i32 0
  %58 = getelementptr inbounds [3 x [3 x float]], ptr %57, i64 0, i64 2
  %59 = load i32, ptr %8, align 4, !tbaa !9
  %60 = sext i32 %59 to i64
  %61 = getelementptr inbounds [3 x float], ptr %58, i64 0, i64 %60
  %62 = load float, ptr %61, align 4, !tbaa !7
  %63 = call float @llvm.fmuladd.f32(float %55, float %62, float %48)
  %64 = getelementptr inbounds nuw %struct._lv_matrix_t, ptr %5, i32 0, i32 0
  %65 = load i32, ptr %6, align 4, !tbaa !9
  %66 = sext i32 %65 to i64
  %67 = getelementptr inbounds [3 x [3 x float]], ptr %64, i64 0, i64 %66
  %68 = load i32, ptr %8, align 4, !tbaa !9
  %69 = sext i32 %68 to i64
  %70 = getelementptr inbounds [3 x float], ptr %67, i64 0, i64 %69
  store float %63, ptr %70, align 4, !tbaa !7
  br label %71

71:                                               ; preds = %18
  %72 = load i32, ptr %8, align 4, !tbaa !9
  %73 = add nsw i32 %72, 1
  store i32 %73, ptr %8, align 4, !tbaa !9
  br label %14, !llvm.loop !11

74:                                               ; preds = %17
  br label %75

75:                                               ; preds = %74
  %76 = load i32, ptr %6, align 4, !tbaa !9
  %77 = add nsw i32 %76, 1
  store i32 %77, ptr %6, align 4, !tbaa !9
  br label %9, !llvm.loop !13

78:                                               ; preds = %12
  %79 = load ptr, ptr %3, align 8, !tbaa !3
  %80 = call ptr @lv_memcpy(ptr noundef %79, ptr noundef %5, i64 noundef 36)
  call void @llvm.lifetime.end.p0(i64 36, ptr %5) #7
  ret void
}

; Function Attrs: nounwind uwtable
define zeroext i1 @lv_matrix_is_identity_or_translation(ptr noundef %0) #0 {
  %2 = alloca ptr, align 8
  store ptr %0, ptr %2, align 8, !tbaa !3
  %3 = load ptr, ptr %2, align 8, !tbaa !3
  %4 = getelementptr inbounds nuw %struct._lv_matrix_t, ptr %3, i32 0, i32 0
  %5 = getelementptr inbounds [3 x [3 x float]], ptr %4, i64 0, i64 0
  %6 = getelementptr inbounds [3 x float], ptr %5, i64 0, i64 0
  %7 = load float, ptr %6, align 4, !tbaa !7
  %8 = fcmp oeq float %7, 1.000000e+00
  br i1 %8, label %9, label %51

9:                                                ; preds = %1
  %10 = load ptr, ptr %2, align 8, !tbaa !3
  %11 = getelementptr inbounds nuw %struct._lv_matrix_t, ptr %10, i32 0, i32 0
  %12 = getelementptr inbounds [3 x [3 x float]], ptr %11, i64 0, i64 0
  %13 = getelementptr inbounds [3 x float], ptr %12, i64 0, i64 1
  %14 = load float, ptr %13, align 4, !tbaa !7
  %15 = fcmp oeq float %14, 0.000000e+00
  br i1 %15, label %16, label %51

16:                                               ; preds = %9
  %17 = load ptr, ptr %2, align 8, !tbaa !3
  %18 = getelementptr inbounds nuw %struct._lv_matrix_t, ptr %17, i32 0, i32 0
  %19 = getelementptr inbounds [3 x [3 x float]], ptr %18, i64 0, i64 1
  %20 = getelementptr inbounds [3 x float], ptr %19, i64 0, i64 0
  %21 = load float, ptr %20, align 4, !tbaa !7
  %22 = fcmp oeq float %21, 0.000000e+00
  br i1 %22, label %23, label %51

23:                                               ; preds = %16
  %24 = load ptr, ptr %2, align 8, !tbaa !3
  %25 = getelementptr inbounds nuw %struct._lv_matrix_t, ptr %24, i32 0, i32 0
  %26 = getelementptr inbounds [3 x [3 x float]], ptr %25, i64 0, i64 1
  %27 = getelementptr inbounds [3 x float], ptr %26, i64 0, i64 1
  %28 = load float, ptr %27, align 4, !tbaa !7
  %29 = fcmp oeq float %28, 1.000000e+00
  br i1 %29, label %30, label %51

30:                                               ; preds = %23
  %31 = load ptr, ptr %2, align 8, !tbaa !3
  %32 = getelementptr inbounds nuw %struct._lv_matrix_t, ptr %31, i32 0, i32 0
  %33 = getelementptr inbounds [3 x [3 x float]], ptr %32, i64 0, i64 2
  %34 = getelementptr inbounds [3 x float], ptr %33, i64 0, i64 0
  %35 = load float, ptr %34, align 4, !tbaa !7
  %36 = fcmp oeq float %35, 0.000000e+00
  br i1 %36, label %37, label %51

37:                                               ; preds = %30
  %38 = load ptr, ptr %2, align 8, !tbaa !3
  %39 = getelementptr inbounds nuw %struct._lv_matrix_t, ptr %38, i32 0, i32 0
  %40 = getelementptr inbounds [3 x [3 x float]], ptr %39, i64 0, i64 2
  %41 = getelementptr inbounds [3 x float], ptr %40, i64 0, i64 1
  %42 = load float, ptr %41, align 4, !tbaa !7
  %43 = fcmp oeq float %42, 0.000000e+00
  br i1 %43, label %44, label %51

44:                                               ; preds = %37
  %45 = load ptr, ptr %2, align 8, !tbaa !3
  %46 = getelementptr inbounds nuw %struct._lv_matrix_t, ptr %45, i32 0, i32 0
  %47 = getelementptr inbounds [3 x [3 x float]], ptr %46, i64 0, i64 2
  %48 = getelementptr inbounds [3 x float], ptr %47, i64 0, i64 2
  %49 = load float, ptr %48, align 4, !tbaa !7
  %50 = fcmp oeq float %49, 1.000000e+00
  br label %51

51:                                               ; preds = %44, %37, %30, %23, %16, %9, %1
  %52 = phi i1 [ false, %37 ], [ false, %30 ], [ false, %23 ], [ false, %16 ], [ false, %9 ], [ false, %1 ], [ %50, %44 ]
  ret i1 %52
}

; Function Attrs: nounwind uwtable
define void @lv_matrix_translate(ptr noundef %0, float noundef %1, float noundef %2) #0 {
  %4 = alloca ptr, align 8
  %5 = alloca float, align 4
  %6 = alloca float, align 4
  %7 = alloca %struct._lv_matrix_t, align 4
  store ptr %0, ptr %4, align 8, !tbaa !3
  store float %1, ptr %5, align 4, !tbaa !7
  store float %2, ptr %6, align 4, !tbaa !7
  %8 = load ptr, ptr %4, align 8, !tbaa !3
  %9 = call zeroext i1 @lv_matrix_is_identity_or_translation(ptr noundef %8)
  br i1 %9, label %10, label %25

10:                                               ; preds = %3
  %11 = load float, ptr %5, align 4, !tbaa !7
  %12 = load ptr, ptr %4, align 8, !tbaa !3
  %13 = getelementptr inbounds nuw %struct._lv_matrix_t, ptr %12, i32 0, i32 0
  %14 = getelementptr inbounds [3 x [3 x float]], ptr %13, i64 0, i64 0
  %15 = getelementptr inbounds [3 x float], ptr %14, i64 0, i64 2
  %16 = load float, ptr %15, align 4, !tbaa !7
  %17 = fadd float %16, %11
  store float %17, ptr %15, align 4, !tbaa !7
  %18 = load float, ptr %6, align 4, !tbaa !7
  %19 = load ptr, ptr %4, align 8, !tbaa !3
  %20 = getelementptr inbounds nuw %struct._lv_matrix_t, ptr %19, i32 0, i32 0
  %21 = getelementptr inbounds [3 x [3 x float]], ptr %20, i64 0, i64 1
  %22 = getelementptr inbounds [3 x float], ptr %21, i64 0, i64 2
  %23 = load float, ptr %22, align 4, !tbaa !7
  %24 = fadd float %23, %18
  store float %24, ptr %22, align 4, !tbaa !7
  br label %38

25:                                               ; preds = %3
  call void @llvm.lifetime.start.p0(i64 36, ptr %7) #7
  %26 = getelementptr inbounds nuw %struct._lv_matrix_t, ptr %7, i32 0, i32 0
  store float 1.000000e+00, ptr %26, align 4, !tbaa !7
  %27 = getelementptr inbounds float, ptr %26, i64 1
  store float 0.000000e+00, ptr %27, align 4, !tbaa !7
  %28 = getelementptr inbounds float, ptr %26, i64 2
  %29 = load float, ptr %5, align 4, !tbaa !7
  store float %29, ptr %28, align 4, !tbaa !7
  %30 = getelementptr inbounds [3 x float], ptr %26, i64 1
  store float 0.000000e+00, ptr %30, align 4, !tbaa !7
  %31 = getelementptr inbounds float, ptr %30, i64 1
  store float 1.000000e+00, ptr %31, align 4, !tbaa !7
  %32 = getelementptr inbounds float, ptr %30, i64 2
  %33 = load float, ptr %6, align 4, !tbaa !7
  store float %33, ptr %32, align 4, !tbaa !7
  %34 = getelementptr inbounds [3 x float], ptr %26, i64 2
  store float 0.000000e+00, ptr %34, align 4, !tbaa !7
  %35 = getelementptr inbounds float, ptr %34, i64 1
  store float 0.000000e+00, ptr %35, align 4, !tbaa !7
  %36 = getelementptr inbounds float, ptr %34, i64 2
  store float 1.000000e+00, ptr %36, align 4, !tbaa !7
  %37 = load ptr, ptr %4, align 8, !tbaa !3
  call void @lv_matrix_multiply(ptr noundef %37, ptr noundef %7)
  call void @llvm.lifetime.end.p0(i64 36, ptr %7) #7
  br label %38

38:                                               ; preds = %25, %10
  ret void
}