; Function Attrs: nounwind uwtable
define void @lv_matrix_translate(ptr noundef %0, float noundef %1, float noundef %2) local_unnamed_addr #1 {
  %4 = alloca %struct._lv_matrix_t, align 4
  %5 = alloca %struct._lv_matrix_t, align 4
  %6 = load float, ptr %0, align 4, !tbaa !3
  %7 = fcmp oeq float %6, 1.000000e+00
  br i1 %7, label %8, label %lv_matrix_is_identity_or_translation.exit.thread

8:                                                ; preds = %3
  %9 = getelementptr inbounds i8, ptr %0, i64 4
  %10 = load float, ptr %9, align 4, !tbaa !3
  %11 = fcmp oeq float %10, 0.000000e+00
  br i1 %11, label %12, label %lv_matrix_is_identity_or_translation.exit.thread

12:                                               ; preds = %8
  %13 = getelementptr inbounds i8, ptr %0, i64 12
  %14 = load float, ptr %13, align 4, !tbaa !3
  %15 = fcmp oeq float %14, 0.000000e+00
  br i1 %15, label %16, label %lv_matrix_is_identity_or_translation.exit.thread

16:                                               ; preds = %12
  %17 = getelementptr inbounds i8, ptr %0, i64 16
  %18 = load float, ptr %17, align 4, !tbaa !3
  %19 = fcmp oeq float %18, 1.000000e+00
  br i1 %19, label %20, label %lv_matrix_is_identity_or_translation.exit.thread

20:                                               ; preds = %16
  %21 = getelementptr inbounds i8, ptr %0, i64 24
  %22 = load float, ptr %21, align 4, !tbaa !3
  %23 = fcmp oeq float %22, 0.000000e+00
  br i1 %23, label %24, label %lv_matrix_is_identity_or_translation.exit.thread

24:                                               ; preds = %20
  %25 = getelementptr inbounds i8, ptr %0, i64 28
  %26 = load float, ptr %25, align 4, !tbaa !3
  %27 = fcmp oeq float %26, 0.000000e+00
  br i1 %27, label %lv_matrix_is_identity_or_translation.exit, label %lv_matrix_is_identity_or_translation.exit.thread

lv_matrix_is_identity_or_translation.exit:        ; preds = %24
  %28 = getelementptr inbounds i8, ptr %0, i64 32
  %29 = load float, ptr %28, align 4, !tbaa !3
  %30 = fcmp oeq float %29, 1.000000e+00
  br i1 %30, label %31, label %lv_matrix_is_identity_or_translation.exit.thread

31:                                               ; preds = %lv_matrix_is_identity_or_translation.exit
  %32 = getelementptr inbounds i8, ptr %0, i64 8
  %33 = load float, ptr %32, align 4, !tbaa !3
  %34 = fadd float %1, %33
  store float %34, ptr %32, align 4, !tbaa !3
  %35 = getelementptr inbounds i8, ptr %0, i64 20
  %36 = load float, ptr %35, align 4, !tbaa !3
  %37 = fadd float %2, %36
  store float %37, ptr %35, align 4, !tbaa !3
  br label %65

lv_matrix_is_identity_or_translation.exit.thread: ; preds = %3, %8, %12, %16, %20, %24, %lv_matrix_is_identity_or_translation.exit
  call void @llvm.lifetime.start.p0(i64 36, ptr nonnull %5) #9
  store float 1.000000e+00, ptr %5, align 4, !tbaa !3
  %38 = getelementptr inbounds i8, ptr %5, i64 4
  store float 0.000000e+00, ptr %38, align 4, !tbaa !3
  %39 = getelementptr inbounds i8, ptr %5, i64 8
  store float %1, ptr %39, align 4, !tbaa !3
  %40 = getelementptr inbounds i8, ptr %5, i64 12
  store float 0.000000e+00, ptr %40, align 4, !tbaa !3
  %41 = getelementptr inbounds i8, ptr %5, i64 16
  store float 1.000000e+00, ptr %41, align 4, !tbaa !3
  %42 = getelementptr inbounds i8, ptr %5, i64 20
  store float %2, ptr %42, align 4, !tbaa !3
  %43 = getelementptr inbounds i8, ptr %5, i64 24
  store float 0.000000e+00, ptr %43, align 4, !tbaa !3
  %44 = getelementptr inbounds i8, ptr %5, i64 28
  store float 0.000000e+00, ptr %44, align 4, !tbaa !3
  %45 = getelementptr inbounds i8, ptr %5, i64 32
  store float 1.000000e+00, ptr %45, align 4, !tbaa !3
  call void @llvm.lifetime.start.p0(i64 36, ptr nonnull %4) #9
  br label %.preheader.i

.preheader.i:                                     ; preds = %52, %lv_matrix_is_identity_or_translation.exit.thread
  %indvars.iv22.i = phi i64 [ 0, %lv_matrix_is_identity_or_translation.exit.thread ], [ %indvars.iv.next23.i, %52 ]
  %46 = getelementptr inbounds [3 x [3 x float]], ptr %0, i64 0, i64 %indvars.iv22.i
  %47 = load float, ptr %46, align 4, !tbaa !3
  %48 = getelementptr inbounds i8, ptr %46, i64 4
  %49 = load float, ptr %48, align 4, !tbaa !3
  %50 = getelementptr inbounds i8, ptr %46, i64 8
  %51 = load float, ptr %50, align 4, !tbaa !3
  br label %53

52:                                               ; preds = %53
  %indvars.iv.next23.i = add nuw nsw i64 %indvars.iv22.i, 1
  %exitcond25.not.i = icmp eq i64 %indvars.iv.next23.i, 3
  br i1 %exitcond25.not.i, label %lv_matrix_multiply.exit, label %.preheader.i, !llvm.loop !7

53:                                               ; preds = %53, %.preheader.i
  %indvars.iv.i = phi i64 [ 0, %.preheader.i ], [ %indvars.iv.next.i, %53 ]
  %54 = getelementptr inbounds [3 x float], ptr %5, i64 0, i64 %indvars.iv.i
  %55 = load float, ptr %54, align 4, !tbaa !3
  %56 = getelementptr inbounds [3 x float], ptr %40, i64 0, i64 %indvars.iv.i
  %57 = load float, ptr %56, align 4, !tbaa !3
  %58 = fmul float %49, %57
  %59 = tail call float @llvm.fmuladd.f32(float %47, float %55, float %58)
  %60 = getelementptr inbounds [3 x float], ptr %43, i64 0, i64 %indvars.iv.i
  %61 = load float, ptr %60, align 4, !tbaa !3
  %62 = tail call float @llvm.fmuladd.f32(float %51, float %61, float %59)
  %63 = getelementptr inbounds [3 x [3 x float]], ptr %4, i64 0, i64 %indvars.iv22.i, i64 %indvars.iv.i
  store float %62, ptr %63, align 4, !tbaa !3
  %indvars.iv.next.i = add nuw nsw i64 %indvars.iv.i, 1
  %exitcond.not.i = icmp eq i64 %indvars.iv.next.i, 3
  br i1 %exitcond.not.i, label %52, label %53, !llvm.loop !9

lv_matrix_multiply.exit:                          ; preds = %52
  %64 = call ptr @lv_memcpy(ptr noundef nonnull %0, ptr noundef nonnull %4, i64 noundef 36) #9
  call void @llvm.lifetime.end.p0(i64 36, ptr nonnull %4) #9
  call void @llvm.lifetime.end.p0(i64 36, ptr nonnull %5) #9
  br label %65

65:                                               ; preds = %lv_matrix_multiply.exit, %31
  ret void
}